; Function Attrs: nounwind uwtable
define hidden i32 @SDL_GetGPUDeviceProperties_REAL(ptr noundef %0) local_unnamed_addr #0 {
  %2 = icmp eq ptr %0, null
  br i1 %2, label %3, label %5

3:                                                ; preds = %1
  %4 = tail call zeroext i1 (ptr, ...) @SDL_SetError_REAL(ptr noundef nonnull @.str.3) #7
  br label %9

5:                                                ; preds = %1
  %6 = getelementptr inbounds nuw i8, ptr %0, i64 8
  %7 = load ptr, ptr %6, align 8
  %8 = tail call i32 %7(ptr noundef nonnull %0) #7
  br label %9

9:                                                ; preds = %5, %3
  %.0 = phi i32 [ 0, %3 ], [ %8, %5 ]
  ret i32 %.0
}